; Function Attrs: mustprogress uwtable
define hidden noundef i64 @_ZN7datalog7context22get_sort_size_estimateEP4sort(ptr noundef nonnull align 8 dereferenceable(3556) %this, ptr noundef %srt) local_unnamed_addr #3 align 2 {
entry:
  %res = alloca i64, align 8
  %m_decl_util.i = getelementptr inbounds i8, ptr %this, i64 56
  %call.i = tail call noundef i32 @_ZNK7datalog12dl_decl_util13get_family_idEv(ptr noundef nonnull align 8 dereferenceable(28) %m_decl_util.i)
  %m_info.i.i.i.i = getelementptr inbounds i8, ptr %srt, i64 24
  %0 = load ptr, ptr %m_info.i.i.i.i, align 8
  %cmp.i.i.i.i = icmp eq ptr %0, null
  br i1 %cmp.i.i.i.i, label %if.end, label %_ZNK4decl13get_family_idEv.exit.thread.i.i.i

_ZNK4decl13get_family_idEv.exit.thread.i.i.i:     ; preds = %entry
  %1 = load i32, ptr %0, align 8
  %cmp6.i.i.i = icmp eq i32 %1, %call.i
  br i1 %cmp6.i.i.i, label %_ZNK7datalog12dl_decl_util12is_rule_sortEP4sort.exit, label %if.end

_ZNK7datalog12dl_decl_util12is_rule_sortEP4sort.exit: ; preds = %_ZNK4decl13get_family_idEv.exit.thread.i.i.i
  %m_kind.i.i.i.i.i = getelementptr inbounds i8, ptr %0, i64 4
  %2 = load i32, ptr %m_kind.i.i.i.i.i, align 4
  %3 = icmp eq i32 %2, 2
  br i1 %3, label %return, label %if.end

if.end:                                           ; preds = %entry, %_ZNK4decl13get_family_idEv.exit.thread.i.i.i, %_ZNK7datalog12dl_decl_util12is_rule_sortEP4sort.exit
  %call3 = call noundef zeroext i1 @_ZN7datalog7context27try_get_sort_constant_countEP4sortRm(ptr noundef nonnull align 8 dereferenceable(3556) %this, ptr noundef nonnull %srt, ptr noundef nonnull align 8 dereferenceable(8) %res)
  br i1 %call3, label %if.end.if.end11_crit_edge, label %if.then4

if.end.if.end11_crit_edge:                        ; preds = %if.end
  %.pre = load i64, ptr %res, align 8
  br label %return

if.then4:                                         ; preds = %if.end
  %4 = load ptr, ptr %m_info.i.i.i.i, align 8
  %m_num_elements.i.i = getelementptr inbounds i8, ptr %4, i64 24
  %5 = load i32, ptr %m_num_elements.i.i, align 8
  %cmp.i = icmp eq i32 %5, 0
  br i1 %cmp.i, label %if.then7, label %return

if.then7:                                         ; preds = %if.then4
  %m_size.i = getelementptr inbounds i8, ptr %4, i64 32
  %6 = load i64, ptr %m_size.i, align 8
  br label %return

return:                                           ; preds = %if.then4, %if.then7, %if.end.if.end11_crit_edge, %_ZNK7datalog12dl_decl_util12is_rule_sortEP4sort.exit
  %retval.0 = phi i64 [ 1, %_ZNK7datalog12dl_decl_util12is_rule_sortEP4sort.exit ], [ %.pre, %if.end.if.end11_crit_edge ], [ %6, %if.then7 ], [ -1, %if.then4 ]
  ret i64 %retval.0
}